; Function Attrs: mustprogress uwtable
define noundef zeroext i1 @_ZN3nix20MemorySourceAccessor10pathExistsERKNS_9CanonPathE(ptr noundef nonnull align 8 dereferenceable(64) %0, ptr nocapture noundef nonnull readonly align 8 dereferenceable(32) %1) unnamed_addr #4 align 2 personality ptr @__gxx_personality_v0 {
  %3 = alloca %"class.std::optional", align 8
  %4 = getelementptr inbounds i8, ptr %3, i64 56
  store i8 0, ptr %4, align 8
  %5 = invoke noundef ptr @_ZN3nix20MemorySourceAccessor4openERKNS_9CanonPathESt8optionalINS0_4FileEE(ptr noundef nonnull align 8 dereferenceable(64) %0, ptr noundef nonnull align 8 dereferenceable(32) %1, ptr noundef nonnull %3)
          to label %6 unwind label %8

6:                                                ; preds = %2
  %7 = icmp ne ptr %5, null
  call void @_ZNSt22_Optional_payload_baseIN3nix20MemorySourceAccessor4FileEE8_M_resetEv(ptr noundef nonnull align 8 dereferenceable(57) %3) #23
  ret i1 %7

8:                                                ; preds = %2
  %9 = landingpad { ptr, i32 }
          cleanup
  call void @_ZNSt22_Optional_payload_baseIN3nix20MemorySourceAccessor4FileEE8_M_resetEv(ptr noundef nonnull align 8 dereferenceable(57) %3) #23
  resume { ptr, i32 } %9
}